target datalayout = "e-m:e-p270:32:32-p271:32:32-p272:64:64-i64:64-i128:128-f80:128-n8:16:32:64-S128"
target triple = "x86_64-pc-linux-gnu"

@hf_ldp_tlv_ldp_p2mp_lsptype = internal global i32 0, align 4
@hf_ldp_tlv_ldp_p2mp_addrfam = internal global i32 0, align 4
@hf_ldp_tlv_ldp_p2mp_addrlen = internal global i32 0, align 4
@hf_ldp_tlv_ldp_p2mp_rtnodeaddr = internal global i32 0, align 4
@hf_ldp_tlv_ldp_p2mp_oplength = internal global i32 0, align 4
@hf_ldp_tlv_ldp_p2mp_opvalue = internal global i32 0, align 4

; Function Attrs: null_pointer_is_valid sspstrong uwtable
define internal void @dissect_tlv_ldp_p2mp_lsp(ptr noundef %0, i32 noundef %1, ptr noundef %2) #0 {
  %4 = alloca ptr, align 8
  %5 = alloca i32, align 4
  %6 = alloca ptr, align 8
  %7 = alloca i16, align 2
  %8 = alloca i16, align 2
  store ptr %0, ptr %4, align 8
  store i32 %1, ptr %5, align 4
  store ptr %2, ptr %6, align 8
  call void @llvm.lifetime.start.p0(i64 2, ptr %7) #7
  %9 = load ptr, ptr %4, align 8
  %10 = load i32, ptr %5, align 4
  %11 = add i32 %10, 3
  %12 = mul i32 %11, 8
  %13 = call zeroext i16 @tvb_get_bits16(ptr noundef %9, i32 noundef %12, i32 noundef 8, i32 noundef 0)
  store i16 %13, ptr %7, align 2
  call void @llvm.lifetime.start.p0(i64 2, ptr %8) #7
  %14 = load ptr, ptr %4, align 8
  %15 = load i32, ptr %5, align 4
  %16 = add i32 %15, 4
  %17 = load i16, ptr %7, align 2
  %18 = zext i16 %17 to i32
  %19 = add i32 %16, %18
  %20 = mul i32 %19, 8
  %21 = call zeroext i16 @tvb_get_bits16(ptr noundef %14, i32 noundef %20, i32 noundef 16, i32 noundef 0)
  store i16 %21, ptr %8, align 2
  %22 = load ptr, ptr %6, align 8
  %23 = load i32, ptr @hf_ldp_tlv_ldp_p2mp_lsptype, align 4
  %24 = load ptr, ptr %4, align 8
  %25 = load i32, ptr %5, align 4
  %26 = call ptr @proto_tree_add_item(ptr noundef %22, i32 noundef %23, ptr noundef %24, i32 noundef %25, i32 noundef 1, i32 noundef 0)
  %27 = load ptr, ptr %6, align 8
  %28 = load i32, ptr @hf_ldp_tlv_ldp_p2mp_addrfam, align 4
  %29 = load ptr, ptr %4, align 8
  %30 = load i32, ptr %5, align 4
  %31 = add i32 %30, 1
  %32 = call ptr @proto_tree_add_item(ptr noundef %27, i32 noundef %28, ptr noundef %29, i32 noundef %31, i32 noundef 2, i32 noundef 0)
  %33 = load ptr, ptr %6, align 8
  %34 = load i32, ptr @hf_ldp_tlv_ldp_p2mp_addrlen, align 4
  %35 = load ptr, ptr %4, align 8
  %36 = load i32, ptr %5, align 4
  %37 = add i32 %36, 3
  %38 = call ptr @proto_tree_add_item(ptr noundef %33, i32 noundef %34, ptr noundef %35, i32 noundef %37, i32 noundef 1, i32 noundef 0)
  %39 = load ptr, ptr %6, align 8
  %40 = load i32, ptr @hf_ldp_tlv_ldp_p2mp_rtnodeaddr, align 4
  %41 = load ptr, ptr %4, align 8
  %42 = load i32, ptr %5, align 4
  %43 = add i32 %42, 4
  %44 = load i16, ptr %7, align 2
  %45 = zext i16 %44 to i32
  %46 = call ptr @proto_tree_add_item(ptr noundef %39, i32 noundef %40, ptr noundef %41, i32 noundef %43, i32 noundef %45, i32 noundef 0)
  %47 = load ptr, ptr %6, align 8
  %48 = load i32, ptr @hf_ldp_tlv_ldp_p2mp_oplength, align 4
  %49 = load ptr, ptr %4, align 8
  %50 = load i32, ptr %5, align 4
  %51 = add i32 %50, 4
  %52 = load i16, ptr %7, align 2
  %53 = zext i16 %52 to i32
  %54 = add i32 %51, %53
  %55 = call ptr @proto_tree_add_item(ptr noundef %47, i32 noundef %48, ptr noundef %49, i32 noundef %54, i32 noundef 2, i32 noundef 0)
  %56 = load ptr, ptr %6, align 8
  %57 = load i32, ptr @hf_ldp_tlv_ldp_p2mp_opvalue, align 4
  %58 = load ptr, ptr %4, align 8
  %59 = load i32, ptr %5, align 4
  %60 = add i32 %59, 4
  %61 = load i16, ptr %7, align 2
  %62 = zext i16 %61 to i32
  %63 = add i32 %60, %62
  %64 = add i32 %63, 2
  %65 = load i16, ptr %8, align 2
  %66 = zext i16 %65 to i32
  %67 = call ptr @proto_tree_add_item(ptr noundef %56, i32 noundef %57, ptr noundef %58, i32 noundef %64, i32 noundef %66, i32 noundef 0)
  call void @llvm.lifetime.end.p0(i64 2, ptr %8) #7
  call void @llvm.lifetime.end.p0(i64 2, ptr %7) #7
  ret void
}