; Function Attrs: null_pointer_is_valid sspstrong uwtable
define internal fastcc void @dissect_tlv_ldp_p2mp_lsp(ptr noundef %0, i32 noundef %1, ptr noundef %2) unnamed_addr #0 {
  %4 = add i32 %1, 3
  %5 = shl i32 %4, 3
  %6 = tail call zeroext i16 @tvb_get_bits16(ptr noundef %0, i32 noundef %5, i32 noundef 8, i32 noundef 0)
  %7 = add i32 %1, 4
  %8 = zext i16 %6 to i32
  %9 = add i32 %7, %8
  %10 = shl i32 %9, 3
  %11 = tail call zeroext i16 @tvb_get_bits16(ptr noundef %0, i32 noundef %10, i32 noundef 16, i32 noundef 0)
  %12 = load i32, ptr @hf_ldp_tlv_ldp_p2mp_lsptype, align 4
  %13 = tail call ptr @proto_tree_add_item(ptr noundef %2, i32 noundef %12, ptr noundef %0, i32 noundef %1, i32 noundef 1, i32 noundef 0)
  %14 = load i32, ptr @hf_ldp_tlv_ldp_p2mp_addrfam, align 4
  %15 = add i32 %1, 1
  %16 = tail call ptr @proto_tree_add_item(ptr noundef %2, i32 noundef %14, ptr noundef %0, i32 noundef %15, i32 noundef 2, i32 noundef 0)
  %17 = load i32, ptr @hf_ldp_tlv_ldp_p2mp_addrlen, align 4
  %18 = tail call ptr @proto_tree_add_item(ptr noundef %2, i32 noundef %17, ptr noundef %0, i32 noundef %4, i32 noundef 1, i32 noundef 0)
  %19 = load i32, ptr @hf_ldp_tlv_ldp_p2mp_rtnodeaddr, align 4
  %20 = tail call ptr @proto_tree_add_item(ptr noundef %2, i32 noundef %19, ptr noundef %0, i32 noundef %7, i32 noundef %8, i32 noundef 0)
  %21 = load i32, ptr @hf_ldp_tlv_ldp_p2mp_oplength, align 4
  %22 = tail call ptr @proto_tree_add_item(ptr noundef %2, i32 noundef %21, ptr noundef %0, i32 noundef %9, i32 noundef 2, i32 noundef 0)
  %23 = load i32, ptr @hf_ldp_tlv_ldp_p2mp_opvalue, align 4
  %24 = add i32 %9, 2
  %25 = zext i16 %11 to i32
  %26 = tail call ptr @proto_tree_add_item(ptr noundef %2, i32 noundef %23, ptr noundef %0, i32 noundef %24, i32 noundef %25, i32 noundef 0)
  ret void
}